target datalayout = "e-m:e-p270:32:32-p271:32:32-p272:64:64-i64:64-i128:128-f80:128-n8:16:32:64-S128"
target triple = "x86_64-pc-linux-gnu"

%struct.RelationData = type { %struct.RelFileLocator, ptr, i32, i32, i8, i8, i8, i8, i8, i32, i32, i32, i32, ptr, ptr, i32, %struct.LockInfoData, ptr, ptr, ptr, ptr, ptr, i8, ptr, ptr, ptr, ptr, ptr, ptr, i32, ptr, i8, ptr, ptr, i32, i8, i32, ptr, i8, ptr, ptr, ptr, ptr, ptr, ptr, ptr, i32, ptr, ptr, ptr, ptr, ptr, ptr, ptr, ptr, ptr, ptr, ptr, ptr, ptr, ptr, ptr, ptr, ptr, ptr, ptr, i32, i8, ptr }
%struct.RelFileLocator = type { i32, i32, i32 }
%struct.LockInfoData = type { %struct.LockRelId }
%struct.LockRelId = type { i32, i32 }
%struct.HeapTupleData = type { i32, %struct.ItemPointerData, i32, ptr }
%struct.ItemPointerData = type { %struct.BlockIdData, i16 }
%struct.BlockIdData = type { i16, i16 }
%struct.ObjectPropertyType = type { ptr, i32, i32, i32, i32, i16, i16, i16, i16, i16, i32, i8 }
%struct.ScanKeyData = type { i32, i16, i16, i32, i32, %struct.FmgrInfo, i64 }
%struct.FmgrInfo = type { ptr, i32, i16, i8, i8, i8, ptr, ptr, ptr }

@.str.1 = private unnamed_addr constant [16 x i8] c"objectaddress.c\00", align 1
@get_object_property_data.prop_last = internal global ptr null, align 8
@.str.229 = private unnamed_addr constant [26 x i8] c"unrecognized class ID: %u\00", align 1
@__func__.get_object_property_data = private unnamed_addr constant [25 x i8] c"get_object_property_data\00", align 1

; Function Attrs: nounwind uwtable
define internal ptr @get_object_property_data(i32 noundef %0) #0 {
  %2 = alloca ptr, align 8
  %3 = alloca i32, align 4
  %4 = alloca i32, align 4
  %5 = alloca i32, align 4
  store i32 %0, ptr %3, align 4
  call void @llvm.lifetime.start.p0(i64 4, ptr %4) #10
  %6 = load ptr, ptr @get_object_property_data.prop_last, align 8
  %7 = icmp ne ptr %6, null
  br i1 %7, label %8, label %16

8:                                                ; preds = %1
  %9 = load ptr, ptr @get_object_property_data.prop_last, align 8
  %10 = getelementptr inbounds nuw %struct.ObjectPropertyType, ptr %9, i32 0, i32 1
  %11 = load i32, ptr %10, align 8
  %12 = load i32, ptr %3, align 4
  %13 = icmp eq i32 %11, %12
  br i1 %13, label %14, label %16

14:                                               ; preds = %8
  %15 = load ptr, ptr @get_object_property_data.prop_last, align 8
  store ptr %15, ptr %2, align 8
  store i32 1, ptr %5, align 4
  br label %52

16:                                               ; preds = %8, %1
  store i32 0, ptr %4, align 4
  br label %17

17:                                               ; preds = %37, %16
  %18 = load i32, ptr %4, align 4
  %19 = sext i32 %18 to i64
  %20 = icmp ult i64 %19, 37
  br i1 %20, label %21, label %40

21:                                               ; preds = %17
  %22 = load i32, ptr %4, align 4
  %23 = sext i32 %22 to i64
  %24 = getelementptr inbounds [37 x %struct.ObjectPropertyType], ptr @ObjectProperty, i64 0, i64 %23
  %25 = getelementptr inbounds nuw %struct.ObjectPropertyType, ptr %24, i32 0, i32 1
  %26 = load i32, ptr %25, align 8
  %27 = load i32, ptr %3, align 4
  %28 = icmp eq i32 %26, %27
  br i1 %28, label %29, label %36

29:                                               ; preds = %21
  %30 = load i32, ptr %4, align 4
  %31 = sext i32 %30 to i64
  %32 = getelementptr inbounds [37 x %struct.ObjectPropertyType], ptr @ObjectProperty, i64 0, i64 %31
  store ptr %32, ptr @get_object_property_data.prop_last, align 8
  %33 = load i32, ptr %4, align 4
  %34 = sext i32 %33 to i64
  %35 = getelementptr inbounds [37 x %struct.ObjectPropertyType], ptr @ObjectProperty, i64 0, i64 %34
  store ptr %35, ptr %2, align 8
  store i32 1, ptr %5, align 4
  br label %52

36:                                               ; preds = %21
  br label %37

37:                                               ; preds = %36
  %38 = load i32, ptr %4, align 4
  %39 = add i32 %38, 1
  store i32 %39, ptr %4, align 4
  br label %17, !llvm.loop !11

40:                                               ; preds = %17
  br label %41

41:                                               ; preds = %40
  br i1 true, label %42, label %44

42:                                               ; preds = %41
  %43 = call zeroext i1 @errstart_cold(i32 noundef 21, ptr noundef null) #11
  br i1 %43, label %46, label %49

44:                                               ; preds = %41
  %45 = call zeroext i1 @errstart(i32 noundef 21, ptr noundef null)
  br i1 %45, label %46, label %49

46:                                               ; preds = %44, %42
  %47 = load i32, ptr %3, align 4
  %48 = call i32 (ptr, ...) @errmsg_internal(ptr noundef @.str.229, i32 noundef %47)
  call void @errfinish(ptr noundef @.str.1, i32 noundef 2773, ptr noundef @__func__.get_object_property_data)
  br label %49

49:                                               ; preds = %46, %44, %42
  unreachable

50:                                               ; No predecessors!
  br label %51

51:                                               ; preds = %50
  store ptr null, ptr %2, align 8
  store i32 1, ptr %5, align 4
  br label %52

52:                                               ; preds = %51, %29, %14
  call void @llvm.lifetime.end.p0(i64 4, ptr %4) #10
  %53 = load ptr, ptr %2, align 8
  ret ptr %53
}

; Function Attrs: nounwind uwtable
define dso_local i32 @get_object_oid_index(i32 noundef %0) #0 {
  %2 = alloca i32, align 4
  %3 = alloca ptr, align 8
  store i32 %0, ptr %2, align 4
  call void @llvm.lifetime.start.p0(i64 8, ptr %3) #10
  %4 = load i32, ptr %2, align 4
  %5 = call ptr @get_object_property_data(i32 noundef %4)
  store ptr %5, ptr %3, align 8
  %6 = load ptr, ptr %3, align 8
  %7 = getelementptr inbounds nuw %struct.ObjectPropertyType, ptr %6, i32 0, i32 2
  %8 = load i32, ptr %7, align 4
  call void @llvm.lifetime.end.p0(i64 8, ptr %3) #10
  ret i32 %8
}

; Function Attrs: inlinehint nounwind uwtable
define internal i64 @ObjectIdGetDatum(i32 noundef %0) #4 {
  %2 = alloca i32, align 4
  store i32 %0, ptr %2, align 4
  %3 = load i32, ptr %2, align 4
  %4 = zext i32 %3 to i64
  ret i64 %4
}

; Function Attrs: nounwind uwtable
define dso_local i32 @get_object_catcache_oid(i32 noundef %0) #0 {
  %2 = alloca i32, align 4
  %3 = alloca ptr, align 8
  store i32 %0, ptr %2, align 4
  call void @llvm.lifetime.start.p0(i64 8, ptr %3) #10
  %4 = load i32, ptr %2, align 4
  %5 = call ptr @get_object_property_data(i32 noundef %4)
  store ptr %5, ptr %3, align 8
  %6 = load ptr, ptr %3, align 8
  %7 = getelementptr inbounds nuw %struct.ObjectPropertyType, ptr %6, i32 0, i32 3
  %8 = load i32, ptr %7, align 8
  call void @llvm.lifetime.end.p0(i64 8, ptr %3) #10
  ret i32 %8
}

; Function Attrs: nounwind uwtable
define dso_local ptr @get_catalog_object_by_oid_extended(ptr noundef %0, i16 noundef signext %1, i32 noundef %2, i1 noundef zeroext %3) #0 {
  %5 = alloca ptr, align 8
  %6 = alloca ptr, align 8
  %7 = alloca i16, align 2
  %8 = alloca i32, align 4
  %9 = alloca i8, align 1
  %10 = alloca ptr, align 8
  %11 = alloca i32, align 4
  %12 = alloca i32, align 4
  %13 = alloca i32, align 4
  %14 = alloca i32, align 4
  %15 = alloca ptr, align 8
  %16 = alloca %struct.ScanKeyData, align 8
  store ptr %0, ptr %6, align 8
  store i16 %1, ptr %7, align 2
  store i32 %2, ptr %8, align 4
  %17 = zext i1 %3 to i8
  store i8 %17, ptr %9, align 1
  call void @llvm.lifetime.start.p0(i64 8, ptr %10) #10
  call void @llvm.lifetime.start.p0(i64 4, ptr %11) #10
  %18 = load ptr, ptr %6, align 8
  %19 = getelementptr inbounds nuw %struct.RelationData, ptr %18, i32 0, i32 15
  %20 = load i32, ptr %19, align 8
  store i32 %20, ptr %11, align 4
  call void @llvm.lifetime.start.p0(i64 4, ptr %12) #10
  %21 = load i32, ptr %11, align 4
  %22 = call i32 @get_object_catcache_oid(i32 noundef %21)
  store i32 %22, ptr %12, align 4
  %23 = load i32, ptr %12, align 4
  %24 = icmp sgt i32 %23, 0
  br i1 %24, label %25, label %43

25:                                               ; preds = %4
  %26 = load i8, ptr %9, align 1, !range !4, !noundef !5
  %27 = trunc i8 %26 to i1
  br i1 %27, label %28, label %33

28:                                               ; preds = %25
  %29 = load i32, ptr %12, align 4
  %30 = load i32, ptr %8, align 4
  %31 = call i64 @ObjectIdGetDatum(i32 noundef %30)
  %32 = call ptr @SearchSysCacheLockedCopy1(i32 noundef %29, i64 noundef %31)
  store ptr %32, ptr %10, align 8
  br label %38

33:                                               ; preds = %25
  %34 = load i32, ptr %12, align 4
  %35 = load i32, ptr %8, align 4
  %36 = call i64 @ObjectIdGetDatum(i32 noundef %35)
  %37 = call ptr @SearchSysCacheCopy(i32 noundef %34, i64 noundef %36, i64 noundef 0, i64 noundef 0, i64 noundef 0)
  store ptr %37, ptr %10, align 8
  br label %38

38:                                               ; preds = %33, %28
  %39 = load ptr, ptr %10, align 8
  %40 = icmp ne ptr %39, null
  br i1 %40, label %42, label %41

41:                                               ; preds = %38
  store ptr null, ptr %5, align 8
  store i32 1, ptr %13, align 4
  br label %74

42:                                               ; preds = %38
  br label %72

43:                                               ; preds = %4
  call void @llvm.lifetime.start.p0(i64 4, ptr %14) #10
  %44 = load i32, ptr %11, align 4
  %45 = call i32 @get_object_oid_index(i32 noundef %44)
  store i32 %45, ptr %14, align 4
  call void @llvm.lifetime.start.p0(i64 8, ptr %15) #10
  call void @llvm.lifetime.start.p0(i64 72, ptr %16) #10
  %46 = load i16, ptr %7, align 2
  %47 = load i32, ptr %8, align 4
  %48 = call i64 @ObjectIdGetDatum(i32 noundef %47)
  call void @ScanKeyInit(ptr noundef %16, i16 noundef signext %46, i16 noundef zeroext 3, i32 noundef 184, i64 noundef %48)
  %49 = load ptr, ptr %6, align 8
  %50 = load i32, ptr %14, align 4
  %51 = call ptr @systable_beginscan(ptr noundef %49, i32 noundef %50, i1 noundef zeroext true, ptr noundef null, i32 noundef 1, ptr noundef %16)
  store ptr %51, ptr %15, align 8
  %52 = load ptr, ptr %15, align 8
  %53 = call ptr @systable_getnext(ptr noundef %52)
  store ptr %53, ptr %10, align 8
  %54 = load ptr, ptr %10, align 8
  %55 = icmp ne ptr %54, null
  br i1 %55, label %58, label %56

56:                                               ; preds = %43
  %57 = load ptr, ptr %15, align 8
  call void @systable_endscan(ptr noundef %57)
  store ptr null, ptr %5, align 8
  store i32 1, ptr %13, align 4
  br label %69

58:                                               ; preds = %43
  %59 = load i8, ptr %9, align 1, !range !4, !noundef !5
  %60 = trunc i8 %59 to i1
  br i1 %60, label %61, label %65

61:                                               ; preds = %58
  %62 = load ptr, ptr %6, align 8
  %63 = load ptr, ptr %10, align 8
  %64 = getelementptr inbounds nuw %struct.HeapTupleData, ptr %63, i32 0, i32 1
  call void @LockTuple(ptr noundef %62, ptr noundef %64, i32 noundef 7)
  br label %65

65:                                               ; preds = %61, %58
  %66 = load ptr, ptr %10, align 8
  %67 = call ptr @heap_copytuple(ptr noundef %66)
  store ptr %67, ptr %10, align 8
  %68 = load ptr, ptr %15, align 8
  call void @systable_endscan(ptr noundef %68)
  store i32 0, ptr %13, align 4
  br label %69

69:                                               ; preds = %65, %56
  call void @llvm.lifetime.end.p0(i64 72, ptr %16) #10
  call void @llvm.lifetime.end.p0(i64 8, ptr %15) #10
  call void @llvm.lifetime.end.p0(i64 4, ptr %14) #10
  %70 = load i32, ptr %13, align 4
  switch i32 %70, label %74 [
    i32 0, label %71
  ]

71:                                               ; preds = %69
  br label %72

72:                                               ; preds = %71, %42
  %73 = load ptr, ptr %10, align 8
  store ptr %73, ptr %5, align 8
  store i32 1, ptr %13, align 4
  br label %74

74:                                               ; preds = %72, %69, %41
  call void @llvm.lifetime.end.p0(i64 4, ptr %12) #10
  call void @llvm.lifetime.end.p0(i64 4, ptr %11) #10
  call void @llvm.lifetime.end.p0(i64 8, ptr %10) #10
  %75 = load ptr, ptr %5, align 8
  ret ptr %75
}