; Function Attrs: nounwind uwtable
define dso_local ptr @get_catalog_object_by_oid_extended(ptr noundef %0, i16 noundef signext %1, i32 noundef %2, i1 noundef zeroext %3) local_unnamed_addr #0 {
  %5 = alloca %struct.ScanKeyData, align 8
  %6 = getelementptr inbounds nuw i8, ptr %0, i64 72
  %7 = load i32, ptr %6, align 8
  %8 = load ptr, ptr @get_object_property_data.prop_last, align 8
  %.not.i.i = icmp eq ptr %8, null
  br i1 %.not.i.i, label %.preheader, label %9

9:                                                ; preds = %4
  %10 = getelementptr inbounds nuw i8, ptr %8, i64 8
  %11 = load i32, ptr %10, align 8
  %12 = icmp eq i32 %11, %7
  br i1 %12, label %get_object_catcache_oid.exit, label %.preheader

.preheader:                                       ; preds = %9, %4
  br label %14

13:                                               ; preds = %14
  %indvars.iv.next.i.i = add nuw nsw i64 %indvars.iv.i.i, 1
  %exitcond.not.i.i = icmp eq i64 %indvars.iv.next.i.i, 37
  br i1 %exitcond.not.i.i, label %20, label %14, !llvm.loop !10

14:                                               ; preds = %.preheader, %13
  %indvars.iv.i.i = phi i64 [ %indvars.iv.next.i.i, %13 ], [ 0, %.preheader ]
  %15 = getelementptr inbounds nuw [37 x %struct.ObjectPropertyType], ptr @ObjectProperty, i64 0, i64 %indvars.iv.i.i
  %16 = getelementptr inbounds nuw i8, ptr %15, i64 8
  %17 = load i32, ptr %16, align 8
  %18 = icmp eq i32 %17, %7
  br i1 %18, label %19, label %13

19:                                               ; preds = %14
  store ptr %15, ptr @get_object_property_data.prop_last, align 8
  br label %get_object_catcache_oid.exit

20:                                               ; preds = %13
  %21 = tail call zeroext i1 @errstart_cold(i32 noundef 21, ptr noundef null) #12
  tail call void @llvm.assume(i1 %21)
  %22 = tail call i32 (ptr, ...) @errmsg_internal(ptr noundef nonnull @.str.229, i32 noundef %7) #11
  tail call void @errfinish(ptr noundef nonnull @.str.1, i32 noundef 2773, ptr noundef nonnull @__func__.get_object_property_data) #11
  unreachable

get_object_catcache_oid.exit:                     ; preds = %9, %19
  %23 = phi ptr [ %15, %19 ], [ %8, %9 ]
  %24 = getelementptr inbounds nuw i8, ptr %23, i64 16
  %25 = load i32, ptr %24, align 8
  %26 = icmp sgt i32 %25, 0
  br i1 %26, label %27, label %get_object_oid_index.exit

27:                                               ; preds = %get_object_catcache_oid.exit
  %28 = zext i32 %2 to i64
  br i1 %3, label %29, label %31

29:                                               ; preds = %27
  %30 = tail call ptr @SearchSysCacheLockedCopy1(i32 noundef %25, i64 noundef %28) #11
  br label %43

31:                                               ; preds = %27
  %32 = tail call ptr @SearchSysCacheCopy(i32 noundef %25, i64 noundef %28, i64 noundef 0, i64 noundef 0, i64 noundef 0) #11
  br label %43

get_object_oid_index.exit:                        ; preds = %get_object_catcache_oid.exit
  %33 = getelementptr inbounds nuw i8, ptr %23, i64 12
  %34 = load i32, ptr %33, align 4
  call void @llvm.lifetime.start.p0(i64 72, ptr nonnull %5) #11
  %35 = zext i32 %2 to i64
  call void @ScanKeyInit(ptr noundef nonnull %5, i16 noundef signext %1, i16 noundef zeroext 3, i32 noundef 184, i64 noundef %35) #11
  %36 = call ptr @systable_beginscan(ptr noundef %0, i32 noundef %34, i1 noundef zeroext true, ptr noundef null, i32 noundef 1, ptr noundef nonnull %5) #11
  %37 = call ptr @systable_getnext(ptr noundef %36) #11
  %.not.not = icmp eq ptr %37, null
  br i1 %.not.not, label %.thread, label %38

.thread:                                          ; preds = %get_object_oid_index.exit
  call void @systable_endscan(ptr noundef %36) #11
  call void @llvm.lifetime.end.p0(i64 72, ptr nonnull %5) #11
  br label %43

38:                                               ; preds = %get_object_oid_index.exit
  br i1 %3, label %39, label %41

39:                                               ; preds = %38
  %40 = getelementptr inbounds nuw i8, ptr %37, i64 4
  call void @LockTuple(ptr noundef %0, ptr noundef nonnull %40, i32 noundef 7) #11
  br label %41

41:                                               ; preds = %38, %39
  %42 = call ptr @heap_copytuple(ptr noundef nonnull %37) #11
  call void @systable_endscan(ptr noundef %36) #11
  call void @llvm.lifetime.end.p0(i64 72, ptr nonnull %5) #11
  br label %43

43:                                               ; preds = %29, %31, %41, %.thread
  %.0 = phi ptr [ null, %.thread ], [ %42, %41 ], [ %30, %29 ], [ %32, %31 ]
  ret ptr %.0
}